; Function Attrs: mustprogress uwtable
define void @_ZN6icu_757UVector10addElementEPvR10UErrorCode(ptr nocapture noundef nonnull align 8 dereferenceable(40) %this, ptr noundef %obj, ptr nocapture noundef nonnull align 4 dereferenceable(4) %status) local_unnamed_addr #1 align 2 {
entry:
  %count = getelementptr inbounds i8, ptr %this, i64 8
  %0 = load i32, ptr %count, align 8
  %add = add nsw i32 %0, 1
  %1 = load i32, ptr %status, align 4
  %cmp.i.i = icmp slt i32 %1, 1
  br i1 %cmp.i.i, label %if.end.i, label %if.end

if.end.i:                                         ; preds = %entry
  %cmp.i = icmp slt i32 %0, -1
  br i1 %cmp.i, label %if.then2.i, label %if.end3.i

if.then2.i:                                       ; preds = %if.end.i
  store i32 1, ptr %status, align 4
  br label %if.end

if.end3.i:                                        ; preds = %if.end.i
  %capacity.i = getelementptr inbounds i8, ptr %this, i64 12
  %2 = load i32, ptr %capacity.i, align 4
  %cmp4.i.not = icmp sgt i32 %2, %0
  br i1 %cmp4.i.not, label %if.end3.i.if.then_crit_edge, label %if.then5.i

if.end3.i.if.then_crit_edge:                      ; preds = %if.end3.i
  %elements.phi.trans.insert = getelementptr inbounds i8, ptr %this, i64 16
  %.pre = load ptr, ptr %elements.phi.trans.insert, align 8
  br label %if.then

if.then5.i:                                       ; preds = %if.end3.i
  %cmp7.i = icmp sgt i32 %2, 1073741823
  br i1 %cmp7.i, label %if.then8.i, label %if.end9.i

if.then8.i:                                       ; preds = %if.then5.i
  store i32 1, ptr %status, align 4
  br label %if.end

if.end9.i:                                        ; preds = %if.then5.i
  %mul.i = shl nsw i32 %2, 1
  %spec.select.i = tail call i32 @llvm.smax.i32(i32 %mul.i, i32 %add)
  %cmp14.i = icmp ugt i32 %spec.select.i, 268435455
  br i1 %cmp14.i, label %if.then15.i, label %if.end16.i

if.then15.i:                                      ; preds = %if.end9.i
  store i32 1, ptr %status, align 4
  br label %if.end

if.end16.i:                                       ; preds = %if.end9.i
  %elements.i = getelementptr inbounds i8, ptr %this, i64 16
  %3 = load ptr, ptr %elements.i, align 8
  %4 = shl nuw nsw i32 %spec.select.i, 3
  %mul17.i = zext nneg i32 %4 to i64
  %call18.i = tail call ptr @uprv_realloc_75(ptr noundef %3, i64 noundef %mul17.i) #18
  %cmp19.i = icmp eq ptr %call18.i, null
  br i1 %cmp19.i, label %if.then20.i, label %if.end21.i

if.then20.i:                                      ; preds = %if.end16.i
  store i32 7, ptr %status, align 4
  br label %if.end

if.end21.i:                                       ; preds = %if.end16.i
  store ptr %call18.i, ptr %elements.i, align 8
  store i32 %spec.select.i, ptr %capacity.i, align 4
  %.pre3 = load i32, ptr %count, align 8
  %.pre4 = add nsw i32 %.pre3, 1
  br label %if.then

if.then:                                          ; preds = %if.end3.i.if.then_crit_edge, %if.end21.i
  %inc.pre-phi = phi i32 [ %add, %if.end3.i.if.then_crit_edge ], [ %.pre4, %if.end21.i ]
  %5 = phi i32 [ %0, %if.end3.i.if.then_crit_edge ], [ %.pre3, %if.end21.i ]
  %6 = phi ptr [ %.pre, %if.end3.i.if.then_crit_edge ], [ %call18.i, %if.end21.i ]
  store i32 %inc.pre-phi, ptr %count, align 8
  %idxprom = sext i32 %5 to i64
  %arrayidx = getelementptr inbounds %union.UElement, ptr %6, i64 %idxprom
  store ptr %obj, ptr %arrayidx, align 8
  br label %if.end

if.end:                                           ; preds = %entry, %if.then20.i, %if.then15.i, %if.then8.i, %if.then2.i, %if.then
  ret void
}